target datalayout = "e-m:e-p270:32:32-p271:32:32-p272:64:64-i64:64-i128:128-f80:128-n8:16:32:64-S128"
target triple = "x86_64-pc-linux-gnu"

%struct.lstopo_output = type { ptr, i32, i32, i32, ptr, i32, i32, i32, i32, i32, i32, i32, i32, ptr, ptr, i32, i32, i64, i64, i64, i32, [3 x [128 x i8]], i32, i32, ptr, i32, i32, i32, i32, i32, i32, %struct.hwloc_calc_level, i32, i32, i32, i64, [256 x i8], i32, i32, i32, i32, i32, float, [20 x i32], i32, i32, i32, [20 x i32], i32, [20 x i32], i32, [20 x i32], i32, i32, i32, i32, ptr, ptr, i32, [20 x i32], [20 x i32], [20 x i32], ptr, ptr, i64, ptr, i32, i32, i32 }
%struct.hwloc_calc_level = type { i32, i32, %union.hwloc_obj_attr_u, [32 x i8], i32, i32, i32, i32 }
%union.hwloc_obj_attr_u = type { %struct.hwloc_numanode_attr_s, [24 x i8] }
%struct.hwloc_numanode_attr_s = type { i64, i32, ptr }
%struct.hwloc_obj = type { i32, ptr, i32, ptr, i64, ptr, i32, i32, ptr, ptr, ptr, i32, ptr, ptr, i32, ptr, ptr, ptr, i32, i32, ptr, i32, ptr, i32, ptr, ptr, ptr, ptr, ptr, %struct.hwloc_infos_s, ptr, i64 }
%struct.hwloc_infos_s = type { ptr, i32, i32 }

@.str.4 = private unnamed_addr constant [4 x i8] c"_%u\00", align 1
@.str.6 = private unnamed_addr constant [12 x i8] c" class='%s'\00", align 1
@.str.10 = private unnamed_addr constant [19 x i8] c" id='%s_%u_line%s'\00", align 1
@.str.11 = private unnamed_addr constant [18 x i8] c" id='anon_line%s'\00", align 1
@.str.12 = private unnamed_addr constant [84 x i8] c"\09<line%s%s x1='%u' y1='%u' x2='%u' y2='%u' stroke='rgb(0,0,0)' stroke-width='%u'/>\0A\00", align 1

; Function Attrs: nounwind uwtable
define internal void @native_svg_line(ptr noundef %0, i32 noundef %1, i32 noundef %2, i32 noundef %3, i32 noundef %4, i32 noundef %5, ptr noundef %6, i32 noundef %7) #0 {
  %9 = alloca ptr, align 8
  %10 = alloca i32, align 4
  %11 = alloca i32, align 4
  %12 = alloca i32, align 4
  %13 = alloca i32, align 4
  %14 = alloca i32, align 4
  %15 = alloca ptr, align 8
  %16 = alloca i32, align 4
  %17 = alloca ptr, align 8
  %18 = alloca [128 x i8], align 16
  %19 = alloca [128 x i8], align 16
  %20 = alloca [12 x i8], align 1
  %21 = alloca [64 x i8], align 16
  store ptr %0, ptr %9, align 8, !tbaa !4
  store i32 %1, ptr %10, align 4, !tbaa !24
  store i32 %2, ptr %11, align 4, !tbaa !24
  store i32 %3, ptr %12, align 4, !tbaa !24
  store i32 %4, ptr %13, align 4, !tbaa !24
  store i32 %5, ptr %14, align 4, !tbaa !24
  store ptr %6, ptr %15, align 8, !tbaa !33
  store i32 %7, ptr %16, align 4, !tbaa !24
  call void @llvm.lifetime.start.p0(i64 8, ptr %17) #7
  %22 = load ptr, ptr %9, align 8, !tbaa !4
  %23 = getelementptr inbounds nuw %struct.lstopo_output, ptr %22, i32 0, i32 4
  %24 = load ptr, ptr %23, align 8, !tbaa !25
  store ptr %24, ptr %17, align 8, !tbaa !23
  call void @llvm.lifetime.start.p0(i64 128, ptr %18) #7
  call void @llvm.memset.p0.i64(ptr align 16 %18, i8 0, i64 128, i1 false)
  call void @llvm.lifetime.start.p0(i64 128, ptr %19) #7
  call void @llvm.memset.p0.i64(ptr align 16 %19, i8 0, i64 128, i1 false)
  call void @llvm.lifetime.start.p0(i64 12, ptr %20) #7
  call void @llvm.memset.p0.i64(ptr align 1 %20, i8 0, i64 12, i1 false)
  %25 = load i32, ptr %16, align 4, !tbaa !24
  %26 = icmp ne i32 %25, 0
  br i1 %26, label %27, label %31

27:                                               ; preds = %8
  %28 = getelementptr inbounds [12 x i8], ptr %20, i64 0, i64 0
  %29 = load i32, ptr %16, align 4, !tbaa !24
  %30 = call i32 (ptr, i64, ptr, ...) @snprintf(ptr noundef %28, i64 noundef 12, ptr noundef @.str.4, i32 noundef %29) #7
  br label %31

31:                                               ; preds = %27, %8
  %32 = load ptr, ptr %15, align 8, !tbaa !33
  %33 = icmp ne ptr %32, null
  br i1 %33, label %34, label %48

34:                                               ; preds = %31
  call void @llvm.lifetime.start.p0(i64 64, ptr %21) #7
  %35 = getelementptr inbounds [64 x i8], ptr %21, i64 0, i64 0
  %36 = load ptr, ptr %15, align 8, !tbaa !33
  %37 = call i32 @hwloc_obj_type_snprintf(ptr noundef %35, i64 noundef 64, ptr noundef %36, i64 noundef 0)
  %38 = getelementptr inbounds [128 x i8], ptr %18, i64 0, i64 0
  %39 = getelementptr inbounds [64 x i8], ptr %21, i64 0, i64 0
  %40 = load ptr, ptr %15, align 8, !tbaa !33
  %41 = getelementptr inbounds nuw %struct.hwloc_obj, ptr %40, i32 0, i32 7
  %42 = load i32, ptr %41, align 4, !tbaa !40
  %43 = getelementptr inbounds [12 x i8], ptr %20, i64 0, i64 0
  %44 = call i32 (ptr, i64, ptr, ...) @snprintf(ptr noundef %38, i64 noundef 128, ptr noundef @.str.10, ptr noundef %39, i32 noundef %42, ptr noundef %43) #7
  %45 = getelementptr inbounds [128 x i8], ptr %19, i64 0, i64 0
  %46 = getelementptr inbounds [64 x i8], ptr %21, i64 0, i64 0
  %47 = call i32 (ptr, i64, ptr, ...) @snprintf(ptr noundef %45, i64 noundef 128, ptr noundef @.str.6, ptr noundef %46) #7
  call void @llvm.lifetime.end.p0(i64 64, ptr %21) #7
  br label %52

48:                                               ; preds = %31
  %49 = getelementptr inbounds [128 x i8], ptr %18, i64 0, i64 0
  %50 = getelementptr inbounds [12 x i8], ptr %20, i64 0, i64 0
  %51 = call i32 (ptr, i64, ptr, ...) @snprintf(ptr noundef %49, i64 noundef 128, ptr noundef @.str.11, ptr noundef %50) #7
  br label %52

52:                                               ; preds = %48, %34
  %53 = load ptr, ptr %17, align 8, !tbaa !23
  %54 = getelementptr inbounds [128 x i8], ptr %18, i64 0, i64 0
  %55 = getelementptr inbounds [128 x i8], ptr %19, i64 0, i64 0
  %56 = load i32, ptr %11, align 4, !tbaa !24
  %57 = load i32, ptr %12, align 4, !tbaa !24
  %58 = load i32, ptr %13, align 4, !tbaa !24
  %59 = load i32, ptr %14, align 4, !tbaa !24
  %60 = load ptr, ptr %9, align 8, !tbaa !4
  %61 = getelementptr inbounds nuw %struct.lstopo_output, ptr %60, i32 0, i32 41
  %62 = load i32, ptr %61, align 8, !tbaa !35
  %63 = call i32 (ptr, ptr, ...) @fprintf(ptr noundef %53, ptr noundef @.str.12, ptr noundef %54, ptr noundef %55, i32 noundef %56, i32 noundef %57, i32 noundef %58, i32 noundef %59, i32 noundef %62) #7
  call void @llvm.lifetime.end.p0(i64 12, ptr %20) #7
  call void @llvm.lifetime.end.p0(i64 128, ptr %19) #7
  call void @llvm.lifetime.end.p0(i64 128, ptr %18) #7
  call void @llvm.lifetime.end.p0(i64 8, ptr %17) #7
  ret void
}