; Function Attrs: nounwind uwtable
define internal void @native_svg_line(ptr noundef readonly captures(none) %0, i32 %1, i32 noundef %2, i32 noundef %3, i32 noundef %4, i32 noundef %5, ptr noundef %6, i32 noundef %7) #0 {
  %9 = alloca [128 x i8], align 16
  %10 = alloca [128 x i8], align 16
  %11 = alloca [12 x i8], align 1
  %12 = alloca [64 x i8], align 16
  %13 = getelementptr inbounds nuw i8, ptr %0, i64 24
  %14 = load ptr, ptr %13, align 8, !tbaa !22
  call void @llvm.lifetime.start.p0(i64 128, ptr nonnull %9) #9
  call void @llvm.memset.p0.i64(ptr noundef nonnull align 16 dereferenceable(128) %9, i8 0, i64 128, i1 false)
  call void @llvm.lifetime.start.p0(i64 128, ptr nonnull %10) #9
  call void @llvm.memset.p0.i64(ptr noundef nonnull align 16 dereferenceable(128) %10, i8 0, i64 128, i1 false)
  call void @llvm.lifetime.start.p0(i64 12, ptr nonnull %11) #9
  call void @llvm.memset.p0.i64(ptr noundef nonnull align 1 dereferenceable(12) %11, i8 0, i64 12, i1 false)
  %.not = icmp eq i32 %7, 0
  br i1 %.not, label %17, label %15

15:                                               ; preds = %8
  %16 = call i32 (ptr, i64, ptr, ...) @snprintf(ptr noundef nonnull dereferenceable(1) %11, i64 noundef 12, ptr noundef nonnull @.str.4, i32 noundef %7) #9
  br label %17

17:                                               ; preds = %15, %8
  %.not12 = icmp eq ptr %6, null
  br i1 %.not12, label %24, label %18

18:                                               ; preds = %17
  call void @llvm.lifetime.start.p0(i64 64, ptr nonnull %12) #9
  %19 = call i32 @hwloc_obj_type_snprintf(ptr noundef nonnull %12, i64 noundef 64, ptr noundef nonnull %6, i64 noundef 0) #9
  %20 = getelementptr inbounds nuw i8, ptr %6, i64 52
  %21 = load i32, ptr %20, align 4, !tbaa !48
  %22 = call i32 (ptr, i64, ptr, ...) @snprintf(ptr noundef nonnull dereferenceable(1) %9, i64 noundef 128, ptr noundef nonnull @.str.10, ptr noundef nonnull %12, i32 noundef %21, ptr noundef nonnull %11) #9
  %23 = call i32 (ptr, i64, ptr, ...) @snprintf(ptr noundef nonnull dereferenceable(1) %10, i64 noundef 128, ptr noundef nonnull @.str.6, ptr noundef nonnull %12) #9
  call void @llvm.lifetime.end.p0(i64 64, ptr nonnull %12) #9
  br label %26

24:                                               ; preds = %17
  %25 = call i32 (ptr, i64, ptr, ...) @snprintf(ptr noundef nonnull dereferenceable(1) %9, i64 noundef 128, ptr noundef nonnull @.str.11, ptr noundef nonnull %11) #9
  br label %26

26:                                               ; preds = %24, %18
  %27 = getelementptr inbounds nuw i8, ptr %0, i64 944
  %28 = load i32, ptr %27, align 8, !tbaa !43
  %29 = call i32 (ptr, ptr, ...) @fprintf(ptr noundef %14, ptr noundef nonnull @.str.12, ptr noundef nonnull %9, ptr noundef nonnull %10, i32 noundef %2, i32 noundef %3, i32 noundef %4, i32 noundef %5, i32 noundef %28) #9
  call void @llvm.lifetime.end.p0(i64 12, ptr nonnull %11) #9
  call void @llvm.lifetime.end.p0(i64 128, ptr nonnull %10) #9
  call void @llvm.lifetime.end.p0(i64 128, ptr nonnull %9) #9
  ret void
}